target datalayout = "e-m:e-p270:32:32-p271:32:32-p272:64:64-i64:64-i128:128-f80:128-n8:16:32:64-S128"
target triple = "x86_64-pc-linux-gnu"

%struct.hwloc_topology = type { i32, i32, i32, ptr, ptr, i64, [20 x i32], [20 x i32], i64, i64, i32, ptr, i64, ptr, i64, [6 x %struct.hwloc_special_level_s], ptr, ptr, %struct.hwloc_binding_hooks, %struct.hwloc_topology_support, %struct.hwloc_infos_s, ptr, ptr, i32, ptr, ptr, i32, i32, ptr, i32, i32, ptr, i32, i32, i32, [5 x float], i32, ptr, ptr, i32, i32, ptr, i32, %struct.hwloc_numanode_attr_s, i32, i32, ptr, i64, i32, ptr, ptr, ptr }
%struct.hwloc_special_level_s = type { i32, ptr, ptr, ptr }
%struct.hwloc_binding_hooks = type { ptr, ptr, ptr, ptr, ptr, ptr, ptr, ptr, ptr, ptr, ptr, ptr, ptr, ptr, ptr, ptr, ptr, ptr, ptr, ptr, ptr, ptr, ptr, ptr }
%struct.hwloc_topology_support = type { ptr, ptr, ptr, ptr }
%struct.hwloc_infos_s = type { ptr, i32, i32 }
%struct.hwloc_numanode_attr_s = type { i64, i32, ptr }

; Function Attrs: nounwind uwtable
define internal ptr @hwloc_fix_membind(ptr noundef %0, ptr noundef %1) #0 {
  %3 = alloca ptr, align 8
  %4 = alloca ptr, align 8
  %5 = alloca ptr, align 8
  %6 = alloca ptr, align 8
  %7 = alloca ptr, align 8
  %8 = alloca i32, align 4
  store ptr %0, ptr %4, align 8, !tbaa !3
  store ptr %1, ptr %5, align 8, !tbaa !8
  call void @llvm.lifetime.start.p0(i64 8, ptr %6) #9
  %9 = load ptr, ptr %4, align 8, !tbaa !3
  %10 = call ptr @hwloc_topology_get_topology_nodeset(ptr noundef %9) #10
  store ptr %10, ptr %6, align 8, !tbaa !8
  call void @llvm.lifetime.start.p0(i64 8, ptr %7) #9
  %11 = load ptr, ptr %4, align 8, !tbaa !3
  %12 = call ptr @hwloc_topology_get_complete_nodeset(ptr noundef %11) #10
  store ptr %12, ptr %7, align 8, !tbaa !8
  %13 = load ptr, ptr %5, align 8, !tbaa !8
  %14 = call i32 @hwloc_bitmap_iszero(ptr noundef %13) #10
  %15 = icmp ne i32 %14, 0
  br i1 %15, label %16, label %18

16:                                               ; preds = %2
  %17 = call ptr @__errno_location() #8
  store i32 22, ptr %17, align 4, !tbaa !10
  store ptr null, ptr %3, align 8
  store i32 1, ptr %8, align 4
  br label %34

18:                                               ; preds = %2
  %19 = load ptr, ptr %5, align 8, !tbaa !8
  %20 = load ptr, ptr %7, align 8, !tbaa !8
  %21 = call i32 @hwloc_bitmap_isincluded(ptr noundef %19, ptr noundef %20) #10
  %22 = icmp ne i32 %21, 0
  br i1 %22, label %25, label %23

23:                                               ; preds = %18
  %24 = call ptr @__errno_location() #8
  store i32 22, ptr %24, align 4, !tbaa !10
  store ptr null, ptr %3, align 8
  store i32 1, ptr %8, align 4
  br label %34

25:                                               ; preds = %18
  %26 = load ptr, ptr %6, align 8, !tbaa !8
  %27 = load ptr, ptr %5, align 8, !tbaa !8
  %28 = call i32 @hwloc_bitmap_isincluded(ptr noundef %26, ptr noundef %27) #10
  %29 = icmp ne i32 %28, 0
  br i1 %29, label %30, label %32

30:                                               ; preds = %25
  %31 = load ptr, ptr %7, align 8, !tbaa !8
  store ptr %31, ptr %3, align 8
  store i32 1, ptr %8, align 4
  br label %34

32:                                               ; preds = %25
  %33 = load ptr, ptr %5, align 8, !tbaa !8
  store ptr %33, ptr %3, align 8
  store i32 1, ptr %8, align 4
  br label %34

34:                                               ; preds = %32, %30, %23, %16
  call void @llvm.lifetime.end.p0(i64 8, ptr %7) #9
  call void @llvm.lifetime.end.p0(i64 8, ptr %6) #9
  %35 = load ptr, ptr %3, align 8
  ret ptr %35
}

; Function Attrs: inlinehint nounwind uwtable
define internal i32 @hwloc__check_membind_policy(i32 noundef %0) #4 {
  %2 = alloca i32, align 4
  %3 = alloca i32, align 4
  store i32 %0, ptr %3, align 4, !tbaa !10
  %4 = load i32, ptr %3, align 4, !tbaa !10
  %5 = icmp eq i32 %4, 0
  br i1 %5, label %21, label %6

6:                                                ; preds = %1
  %7 = load i32, ptr %3, align 4, !tbaa !10
  %8 = icmp eq i32 %7, 1
  br i1 %8, label %21, label %9

9:                                                ; preds = %6
  %10 = load i32, ptr %3, align 4, !tbaa !10
  %11 = icmp eq i32 %10, 2
  br i1 %11, label %21, label %12

12:                                               ; preds = %9
  %13 = load i32, ptr %3, align 4, !tbaa !10
  %14 = icmp eq i32 %13, 3
  br i1 %14, label %21, label %15

15:                                               ; preds = %12
  %16 = load i32, ptr %3, align 4, !tbaa !10
  %17 = icmp eq i32 %16, 5
  br i1 %17, label %21, label %18

18:                                               ; preds = %15
  %19 = load i32, ptr %3, align 4, !tbaa !10
  %20 = icmp eq i32 %19, 4
  br i1 %20, label %21, label %22

21:                                               ; preds = %18, %15, %12, %9, %6, %1
  store i32 0, ptr %2, align 4
  br label %23

22:                                               ; preds = %18
  store i32 -1, ptr %2, align 4
  br label %23

23:                                               ; preds = %22, %21
  %24 = load i32, ptr %2, align 4
  ret i32 %24
}

; Function Attrs: nounwind uwtable
define internal i32 @hwloc_set_proc_membind_by_nodeset(ptr noundef %0, i32 noundef %1, ptr noundef %2, i32 noundef %3, i32 noundef %4) #0 {
  %6 = alloca i32, align 4
  %7 = alloca ptr, align 8
  %8 = alloca i32, align 4
  %9 = alloca ptr, align 8
  %10 = alloca i32, align 4
  %11 = alloca i32, align 4
  store ptr %0, ptr %7, align 8, !tbaa !3
  store i32 %1, ptr %8, align 4, !tbaa !10
  store ptr %2, ptr %9, align 8, !tbaa !8
  store i32 %3, ptr %10, align 4, !tbaa !10
  store i32 %4, ptr %11, align 4, !tbaa !10
  %12 = load i32, ptr %11, align 4, !tbaa !10
  %13 = and i32 %12, -64
  %14 = icmp ne i32 %13, 0
  br i1 %14, label %19, label %15

15:                                               ; preds = %5
  %16 = load i32, ptr %10, align 4, !tbaa !10
  %17 = call i32 @hwloc__check_membind_policy(i32 noundef %16)
  %18 = icmp slt i32 %17, 0
  br i1 %18, label %19, label %21

19:                                               ; preds = %15, %5
  %20 = call ptr @__errno_location() #8
  store i32 22, ptr %20, align 4, !tbaa !10
  store i32 -1, ptr %6, align 4
  br label %47

21:                                               ; preds = %15
  %22 = load ptr, ptr %7, align 8, !tbaa !3
  %23 = load ptr, ptr %9, align 8, !tbaa !8
  %24 = call ptr @hwloc_fix_membind(ptr noundef %22, ptr noundef %23)
  store ptr %24, ptr %9, align 8, !tbaa !8
  %25 = load ptr, ptr %9, align 8, !tbaa !8
  %26 = icmp ne ptr %25, null
  br i1 %26, label %28, label %27

27:                                               ; preds = %21
  store i32 -1, ptr %6, align 4
  br label %47

28:                                               ; preds = %21
  %29 = load ptr, ptr %7, align 8, !tbaa !3
  %30 = getelementptr inbounds nuw %struct.hwloc_topology, ptr %29, i32 0, i32 18
  %31 = getelementptr inbounds nuw %struct.hwloc_binding_hooks, ptr %30, i32 0, i32 15
  %32 = load ptr, ptr %31, align 8, !tbaa !61
  %33 = icmp ne ptr %32, null
  br i1 %33, label %34, label %45

34:                                               ; preds = %28
  %35 = load ptr, ptr %7, align 8, !tbaa !3
  %36 = getelementptr inbounds nuw %struct.hwloc_topology, ptr %35, i32 0, i32 18
  %37 = getelementptr inbounds nuw %struct.hwloc_binding_hooks, ptr %36, i32 0, i32 15
  %38 = load ptr, ptr %37, align 8, !tbaa !61
  %39 = load ptr, ptr %7, align 8, !tbaa !3
  %40 = load i32, ptr %8, align 4, !tbaa !10
  %41 = load ptr, ptr %9, align 8, !tbaa !8
  %42 = load i32, ptr %10, align 4, !tbaa !10
  %43 = load i32, ptr %11, align 4, !tbaa !10
  %44 = call i32 %38(ptr noundef %39, i32 noundef %40, ptr noundef %41, i32 noundef %42, i32 noundef %43)
  store i32 %44, ptr %6, align 4
  br label %47

45:                                               ; preds = %28
  %46 = call ptr @__errno_location() #8
  store i32 38, ptr %46, align 4, !tbaa !10
  store i32 -1, ptr %6, align 4
  br label %47

47:                                               ; preds = %45, %34, %27, %19
  %48 = load i32, ptr %6, align 4
  ret i32 %48
}