; Function Attrs: nounwind uwtable
define internal fastcc i32 @hwloc_set_proc_membind_by_nodeset(ptr noundef %0, i32 noundef %1, ptr noundef %2, i32 noundef %3, i32 noundef %4) unnamed_addr #0 {
  %.not = icmp ugt i32 %4, 63
  %or.cond9.i = icmp ugt i32 %3, 5
  %or.cond = or i1 %or.cond9.i, %.not
  br i1 %or.cond, label %6, label %8

6:                                                ; preds = %5
  %7 = tail call ptr @__errno_location() #12
  store i32 22, ptr %7, align 4, !tbaa !3
  br label %hwloc_fix_membind.exit.thread

8:                                                ; preds = %5
  %9 = tail call ptr @hwloc_topology_get_topology_nodeset(ptr noundef readonly %0) #13
  %10 = tail call ptr @hwloc_topology_get_complete_nodeset(ptr noundef readonly %0) #13
  %11 = tail call i32 @hwloc_bitmap_iszero(ptr noundef readonly %2) #13
  %.not.i = icmp eq i32 %11, 0
  br i1 %.not.i, label %14, label %12

12:                                               ; preds = %8
  %13 = tail call ptr @__errno_location() #12
  store i32 22, ptr %13, align 4, !tbaa !3
  br label %hwloc_fix_membind.exit.thread

14:                                               ; preds = %8
  %15 = tail call i32 @hwloc_bitmap_isincluded(ptr noundef readonly %2, ptr noundef %10) #13
  %.not10.i = icmp eq i32 %15, 0
  br i1 %.not10.i, label %16, label %hwloc_fix_membind.exit

16:                                               ; preds = %14
  %17 = tail call ptr @__errno_location() #12
  store i32 22, ptr %17, align 4, !tbaa !3
  br label %hwloc_fix_membind.exit.thread

hwloc_fix_membind.exit:                           ; preds = %14
  %18 = tail call i32 @hwloc_bitmap_isincluded(ptr noundef %9, ptr noundef readonly %2) #13
  %.not11.i = icmp eq i32 %18, 0
  %..i16 = select i1 %.not11.i, ptr %2, ptr %10
  %.not14 = icmp eq ptr %..i16, null
  br i1 %.not14, label %hwloc_fix_membind.exit.thread, label %19

19:                                               ; preds = %hwloc_fix_membind.exit
  %20 = getelementptr inbounds nuw i8, ptr %0, i64 584
  %21 = load ptr, ptr %20, align 8, !tbaa !59
  %.not15 = icmp eq ptr %21, null
  br i1 %.not15, label %24, label %22

22:                                               ; preds = %19
  %23 = tail call i32 %21(ptr noundef nonnull %0, i32 noundef %1, ptr noundef nonnull %..i16, i32 noundef %3, i32 noundef %4) #14
  br label %hwloc_fix_membind.exit.thread

24:                                               ; preds = %19
  %25 = tail call ptr @__errno_location() #12
  store i32 38, ptr %25, align 4, !tbaa !3
  br label %hwloc_fix_membind.exit.thread

hwloc_fix_membind.exit.thread:                    ; preds = %16, %12, %hwloc_fix_membind.exit, %24, %22, %6
  %.0 = phi i32 [ -1, %6 ], [ %23, %22 ], [ -1, %24 ], [ -1, %hwloc_fix_membind.exit ], [ -1, %12 ], [ -1, %16 ]
  ret i32 %.0
}